target datalayout = "e-m:e-p270:32:32-p271:32:32-p272:64:64-i64:64-i128:128-f80:128-n8:16:32:64-S128"
target triple = "x86_64-pc-linux-gnu"

%struct.CteState = type { ptr, ptr, i32, i32, ptr, i32, i32 }
%struct.SelectStmt = type { i32, ptr, ptr, ptr, ptr, ptr, ptr, i8, ptr, ptr, ptr, ptr, ptr, ptr, i32, ptr, ptr, i32, i8, ptr, ptr, i32, i32 }

@.str.1 = private unnamed_addr constant [12 x i8] c"parse_cte.c\00", align 1
@.str.44 = private unnamed_addr constant [24 x i8] c"unrecognized set op: %d\00", align 1
@__func__.checkWellFormedSelectStmt = private unnamed_addr constant [26 x i8] c"checkWellFormedSelectStmt\00", align 1

; Function Attrs: nounwind uwtable
define internal void @checkWellFormedSelectStmt(ptr noundef %0, ptr noundef %1) #0 {
  %3 = alloca ptr, align 8
  %4 = alloca ptr, align 8
  %5 = alloca i32, align 4
  store ptr %0, ptr %3, align 8
  store ptr %1, ptr %4, align 8
  call void @llvm.lifetime.start.p0(i64 4, ptr %5) #8
  %6 = load ptr, ptr %4, align 8
  %7 = getelementptr inbounds nuw %struct.CteState, ptr %6, i32 0, i32 6
  %8 = load i32, ptr %7, align 4
  store i32 %8, ptr %5, align 4
  %9 = load i32, ptr %5, align 4
  %10 = icmp ne i32 %9, 0
  br i1 %10, label %11, label %15

11:                                               ; preds = %2
  %12 = load ptr, ptr %3, align 8
  %13 = load ptr, ptr %4, align 8
  %14 = call zeroext i1 @raw_expression_tree_walker_impl(ptr noundef %12, ptr noundef @checkWellFormedRecursionWalker, ptr noundef %13)
  br label %124

15:                                               ; preds = %2
  %16 = load ptr, ptr %3, align 8
  %17 = getelementptr inbounds nuw %struct.SelectStmt, ptr %16, i32 0, i32 17
  %18 = load i32, ptr %17, align 8
  switch i32 %18, label %109 [
    i32 0, label %19
    i32 1, label %19
    i32 2, label %23
    i32 3, label %65
  ]

19:                                               ; preds = %15, %15
  %20 = load ptr, ptr %3, align 8
  %21 = load ptr, ptr %4, align 8
  %22 = call zeroext i1 @raw_expression_tree_walker_impl(ptr noundef %20, ptr noundef @checkWellFormedRecursionWalker, ptr noundef %21)
  br label %123

23:                                               ; preds = %15
  %24 = load ptr, ptr %3, align 8
  %25 = getelementptr inbounds nuw %struct.SelectStmt, ptr %24, i32 0, i32 18
  %26 = load i8, ptr %25, align 4, !range !7, !noundef !8
  %27 = trunc i8 %26 to i1
  br i1 %27, label %28, label %31

28:                                               ; preds = %23
  %29 = load ptr, ptr %4, align 8
  %30 = getelementptr inbounds nuw %struct.CteState, ptr %29, i32 0, i32 6
  store i32 4, ptr %30, align 4
  br label %31

31:                                               ; preds = %28, %23
  %32 = load ptr, ptr %3, align 8
  %33 = getelementptr inbounds nuw %struct.SelectStmt, ptr %32, i32 0, i32 19
  %34 = load ptr, ptr %33, align 8
  %35 = load ptr, ptr %4, align 8
  %36 = call zeroext i1 @checkWellFormedRecursionWalker(ptr noundef %34, ptr noundef %35)
  %37 = load ptr, ptr %3, align 8
  %38 = getelementptr inbounds nuw %struct.SelectStmt, ptr %37, i32 0, i32 20
  %39 = load ptr, ptr %38, align 8
  %40 = load ptr, ptr %4, align 8
  %41 = call zeroext i1 @checkWellFormedRecursionWalker(ptr noundef %39, ptr noundef %40)
  %42 = load i32, ptr %5, align 4
  %43 = load ptr, ptr %4, align 8
  %44 = getelementptr inbounds nuw %struct.CteState, ptr %43, i32 0, i32 6
  store i32 %42, ptr %44, align 4
  %45 = load ptr, ptr %3, align 8
  %46 = getelementptr inbounds nuw %struct.SelectStmt, ptr %45, i32 0, i32 11
  %47 = load ptr, ptr %46, align 8
  %48 = load ptr, ptr %4, align 8
  %49 = call zeroext i1 @checkWellFormedRecursionWalker(ptr noundef %47, ptr noundef %48)
  %50 = load ptr, ptr %3, align 8
  %51 = getelementptr inbounds nuw %struct.SelectStmt, ptr %50, i32 0, i32 12
  %52 = load ptr, ptr %51, align 8
  %53 = load ptr, ptr %4, align 8
  %54 = call zeroext i1 @checkWellFormedRecursionWalker(ptr noundef %52, ptr noundef %53)
  %55 = load ptr, ptr %3, align 8
  %56 = getelementptr inbounds nuw %struct.SelectStmt, ptr %55, i32 0, i32 13
  %57 = load ptr, ptr %56, align 8
  %58 = load ptr, ptr %4, align 8
  %59 = call zeroext i1 @checkWellFormedRecursionWalker(ptr noundef %57, ptr noundef %58)
  %60 = load ptr, ptr %3, align 8
  %61 = getelementptr inbounds nuw %struct.SelectStmt, ptr %60, i32 0, i32 15
  %62 = load ptr, ptr %61, align 8
  %63 = load ptr, ptr %4, align 8
  %64 = call zeroext i1 @checkWellFormedRecursionWalker(ptr noundef %62, ptr noundef %63)
  br label %123

65:                                               ; preds = %15
  %66 = load ptr, ptr %3, align 8
  %67 = getelementptr inbounds nuw %struct.SelectStmt, ptr %66, i32 0, i32 18
  %68 = load i8, ptr %67, align 4, !range !7, !noundef !8
  %69 = trunc i8 %68 to i1
  br i1 %69, label %70, label %73

70:                                               ; preds = %65
  %71 = load ptr, ptr %4, align 8
  %72 = getelementptr inbounds nuw %struct.CteState, ptr %71, i32 0, i32 6
  store i32 5, ptr %72, align 4
  br label %73

73:                                               ; preds = %70, %65
  %74 = load ptr, ptr %3, align 8
  %75 = getelementptr inbounds nuw %struct.SelectStmt, ptr %74, i32 0, i32 19
  %76 = load ptr, ptr %75, align 8
  %77 = load ptr, ptr %4, align 8
  %78 = call zeroext i1 @checkWellFormedRecursionWalker(ptr noundef %76, ptr noundef %77)
  %79 = load ptr, ptr %4, align 8
  %80 = getelementptr inbounds nuw %struct.CteState, ptr %79, i32 0, i32 6
  store i32 5, ptr %80, align 4
  %81 = load ptr, ptr %3, align 8
  %82 = getelementptr inbounds nuw %struct.SelectStmt, ptr %81, i32 0, i32 20
  %83 = load ptr, ptr %82, align 8
  %84 = load ptr, ptr %4, align 8
  %85 = call zeroext i1 @checkWellFormedRecursionWalker(ptr noundef %83, ptr noundef %84)
  %86 = load i32, ptr %5, align 4
  %87 = load ptr, ptr %4, align 8
  %88 = getelementptr inbounds nuw %struct.CteState, ptr %87, i32 0, i32 6
  store i32 %86, ptr %88, align 4
  %89 = load ptr, ptr %3, align 8
  %90 = getelementptr inbounds nuw %struct.SelectStmt, ptr %89, i32 0, i32 11
  %91 = load ptr, ptr %90, align 8
  %92 = load ptr, ptr %4, align 8
  %93 = call zeroext i1 @checkWellFormedRecursionWalker(ptr noundef %91, ptr noundef %92)
  %94 = load ptr, ptr %3, align 8
  %95 = getelementptr inbounds nuw %struct.SelectStmt, ptr %94, i32 0, i32 12
  %96 = load ptr, ptr %95, align 8
  %97 = load ptr, ptr %4, align 8
  %98 = call zeroext i1 @checkWellFormedRecursionWalker(ptr noundef %96, ptr noundef %97)
  %99 = load ptr, ptr %3, align 8
  %100 = getelementptr inbounds nuw %struct.SelectStmt, ptr %99, i32 0, i32 13
  %101 = load ptr, ptr %100, align 8
  %102 = load ptr, ptr %4, align 8
  %103 = call zeroext i1 @checkWellFormedRecursionWalker(ptr noundef %101, ptr noundef %102)
  %104 = load ptr, ptr %3, align 8
  %105 = getelementptr inbounds nuw %struct.SelectStmt, ptr %104, i32 0, i32 15
  %106 = load ptr, ptr %105, align 8
  %107 = load ptr, ptr %4, align 8
  %108 = call zeroext i1 @checkWellFormedRecursionWalker(ptr noundef %106, ptr noundef %107)
  br label %123

109:                                              ; preds = %15
  br label %110

110:                                              ; preds = %109
  br i1 true, label %111, label %113

111:                                              ; preds = %110
  %112 = call zeroext i1 @errstart_cold(i32 noundef 21, ptr noundef null) #10
  br i1 %112, label %115, label %120

113:                                              ; preds = %110
  %114 = call zeroext i1 @errstart(i32 noundef 21, ptr noundef null)
  br i1 %114, label %115, label %120

115:                                              ; preds = %113, %111
  %116 = load ptr, ptr %3, align 8
  %117 = getelementptr inbounds nuw %struct.SelectStmt, ptr %116, i32 0, i32 17
  %118 = load i32, ptr %117, align 8
  %119 = call i32 (ptr, ...) @errmsg_internal(ptr noundef @.str.44, i32 noundef %118)
  call void @errfinish(ptr noundef @.str.1, i32 noundef 1201, ptr noundef @__func__.checkWellFormedSelectStmt)
  br label %120

120:                                              ; preds = %115, %113, %111
  unreachable

121:                                              ; No predecessors!
  br label %122

122:                                              ; preds = %121
  br label %123

123:                                              ; preds = %122, %73, %31, %19
  br label %124

124:                                              ; preds = %123, %11
  call void @llvm.lifetime.end.p0(i64 4, ptr %5) #8
  ret void
}