; Function Attrs: nounwind uwtable
define internal fastcc void @checkWellFormedSelectStmt(ptr noundef nonnull %0, ptr noundef %1) unnamed_addr #0 {
  %3 = getelementptr inbounds nuw i8, ptr %1, i64 36
  %4 = load i32, ptr %3, align 4
  %.not = icmp eq i32 %4, 0
  br i1 %.not, label %7, label %5

5:                                                ; preds = %2
  %6 = tail call zeroext i1 @raw_expression_tree_walker_impl(ptr noundef nonnull %0, ptr noundef nonnull @checkWellFormedRecursionWalker, ptr noundef nonnull %1) #10
  br label %64

7:                                                ; preds = %2
  %8 = getelementptr inbounds nuw i8, ptr %0, i64 136
  %9 = load i32, ptr %8, align 8
  switch i32 %9, label %60 [
    i32 0, label %10
    i32 1, label %10
    i32 2, label %12
    i32 3, label %36
  ]

10:                                               ; preds = %7, %7
  %11 = tail call zeroext i1 @raw_expression_tree_walker_impl(ptr noundef nonnull %0, ptr noundef nonnull @checkWellFormedRecursionWalker, ptr noundef nonnull %1) #10
  br label %64

12:                                               ; preds = %7
  %13 = getelementptr inbounds nuw i8, ptr %0, i64 140
  %14 = load i8, ptr %13, align 4, !range !4, !noundef !5
  %15 = trunc nuw i8 %14 to i1
  br i1 %15, label %16, label %17

16:                                               ; preds = %12
  store i32 4, ptr %3, align 4
  br label %17

17:                                               ; preds = %16, %12
  %18 = getelementptr inbounds nuw i8, ptr %0, i64 144
  %19 = load ptr, ptr %18, align 8
  %20 = tail call zeroext i1 @checkWellFormedRecursionWalker(ptr noundef %19, ptr noundef nonnull %1)
  %21 = getelementptr inbounds nuw i8, ptr %0, i64 152
  %22 = load ptr, ptr %21, align 8
  %23 = tail call zeroext i1 @checkWellFormedRecursionWalker(ptr noundef %22, ptr noundef nonnull %1)
  store i32 0, ptr %3, align 4
  %24 = getelementptr inbounds nuw i8, ptr %0, i64 88
  %25 = load ptr, ptr %24, align 8
  %26 = tail call zeroext i1 @checkWellFormedRecursionWalker(ptr noundef %25, ptr noundef nonnull %1)
  %27 = getelementptr inbounds nuw i8, ptr %0, i64 96
  %28 = load ptr, ptr %27, align 8
  %29 = tail call zeroext i1 @checkWellFormedRecursionWalker(ptr noundef %28, ptr noundef nonnull %1)
  %30 = getelementptr inbounds nuw i8, ptr %0, i64 104
  %31 = load ptr, ptr %30, align 8
  %32 = tail call zeroext i1 @checkWellFormedRecursionWalker(ptr noundef %31, ptr noundef nonnull %1)
  %33 = getelementptr inbounds nuw i8, ptr %0, i64 120
  %34 = load ptr, ptr %33, align 8
  %35 = tail call zeroext i1 @checkWellFormedRecursionWalker(ptr noundef %34, ptr noundef nonnull %1)
  br label %64

36:                                               ; preds = %7
  %37 = getelementptr inbounds nuw i8, ptr %0, i64 140
  %38 = load i8, ptr %37, align 4, !range !4, !noundef !5
  %39 = trunc nuw i8 %38 to i1
  br i1 %39, label %40, label %41

40:                                               ; preds = %36
  store i32 5, ptr %3, align 4
  br label %41

41:                                               ; preds = %40, %36
  %42 = getelementptr inbounds nuw i8, ptr %0, i64 144
  %43 = load ptr, ptr %42, align 8
  %44 = tail call zeroext i1 @checkWellFormedRecursionWalker(ptr noundef %43, ptr noundef nonnull %1)
  store i32 5, ptr %3, align 4
  %45 = getelementptr inbounds nuw i8, ptr %0, i64 152
  %46 = load ptr, ptr %45, align 8
  %47 = tail call zeroext i1 @checkWellFormedRecursionWalker(ptr noundef %46, ptr noundef nonnull %1)
  store i32 0, ptr %3, align 4
  %48 = getelementptr inbounds nuw i8, ptr %0, i64 88
  %49 = load ptr, ptr %48, align 8
  %50 = tail call zeroext i1 @checkWellFormedRecursionWalker(ptr noundef %49, ptr noundef nonnull %1)
  %51 = getelementptr inbounds nuw i8, ptr %0, i64 96
  %52 = load ptr, ptr %51, align 8
  %53 = tail call zeroext i1 @checkWellFormedRecursionWalker(ptr noundef %52, ptr noundef nonnull %1)
  %54 = getelementptr inbounds nuw i8, ptr %0, i64 104
  %55 = load ptr, ptr %54, align 8
  %56 = tail call zeroext i1 @checkWellFormedRecursionWalker(ptr noundef %55, ptr noundef nonnull %1)
  %57 = getelementptr inbounds nuw i8, ptr %0, i64 120
  %58 = load ptr, ptr %57, align 8
  %59 = tail call zeroext i1 @checkWellFormedRecursionWalker(ptr noundef %58, ptr noundef nonnull %1)
  br label %64

60:                                               ; preds = %7
  %61 = tail call zeroext i1 @errstart_cold(i32 noundef 21, ptr noundef null) #9
  tail call void @llvm.assume(i1 %61)
  %62 = load i32, ptr %8, align 8
  %63 = tail call i32 (ptr, ...) @errmsg_internal(ptr noundef nonnull @.str.44, i32 noundef %62) #10
  tail call void @errfinish(ptr noundef nonnull @.str.1, i32 noundef 1201, ptr noundef nonnull @__func__.checkWellFormedSelectStmt) #10
  unreachable

64:                                               ; preds = %10, %17, %41, %5
  ret void
}